; ModuleID = '37/1909.c'
source_filename = "37/1909.c"
target datalayout = "e-m:e-p270:32:32-p271:32:32-p272:64:64-i64:64-f80:128-n8:16:32:64-S128"
target triple = "x86_64-pc-linux-gnu"

@.str = private unnamed_addr constant [3 x i8] c"%d\00", align 1
@.str.1 = private unnamed_addr constant [3 x i8] c"%s\00", align 1
@.str.2 = private unnamed_addr constant [4 x i8] c"no\0A\00", align 1
@.str.3 = private unnamed_addr constant [4 x i8] c"%c\0A\00", align 1

; Function Attrs: noinline nounwind uwtable
define dso_local i32 @main() #0 {
  %1 = alloca i32, align 4
  %2 = alloca i32, align 4
  %3 = alloca i32, align 4
  %4 = alloca [100000 x i8], align 16
  %5 = alloca i32, align 4
  %6 = alloca i32, align 4
  %7 = alloca i32, align 4
  store i32 0, i32* %1, align 4
  store i32 1, i32* %3, align 4
  %8 = call i32 (i8*, ...) @__isoc99_scanf(i8* getelementptr inbounds ([3 x i8], [3 x i8]* @.str, i64 0, i64 0), i32* %2)
  br label %9

9:                                                ; preds = %84, %0
  %10 = load i32, i32* %3, align 4
  %11 = load i32, i32* %2, align 4
  %12 = icmp sle i32 %10, %11
  br i1 %12, label %13, label %87

13:                                               ; preds = %9
  %14 = getelementptr inbounds [100000 x i8], [100000 x i8]* %4, i64 0, i64 0
  call void @llvm.memset.p0i8.i64(i8* align 16 %14, i8 0, i64 100000, i1 false)
  %15 = call i32 (i8*, ...) @__isoc99_scanf(i8* getelementptr inbounds ([3 x i8], [3 x i8]* @.str.1, i64 0, i64 0), [100000 x i8]* %4)
  store i32 0, i32* %6, align 4
  store i32 0, i32* %7, align 4
  %16 = getelementptr inbounds [100000 x i8], [100000 x i8]* %4, i64 0, i64 0
  %17 = call i64 @strlen(i8* %16) #4
  %18 = trunc i64 %17 to i32
  store i32 %18, i32* %5, align 4
  br label %19

19:                                               ; preds = %65, %13
  %20 = load i32, i32* %6, align 4
  %21 = load i32, i32* %5, align 4
  %22 = icmp slt i32 %20, %21
  br i1 %22, label %23, label %66

23:                                               ; preds = %19
  br label %24

24:                                               ; preds = %56, %23
  %25 = load i32, i32* %7, align 4
  %26 = load i32, i32* %5, align 4
  %27 = icmp slt i32 %25, %26
  br i1 %27, label %28, label %57

28:                                               ; preds = %24
  %29 = load i32, i32* %6, align 4
  %30 = sext i32 %29 to i64
  %31 = getelementptr inbounds [100000 x i8], [100000 x i8]* %4, i64 0, i64 %30
  %32 = load i8, i8* %31, align 1
  %33 = sext i8 %32 to i32
  %34 = load i32, i32* %7, align 4
  %35 = sext i32 %34 to i64
  %36 = getelementptr inbounds [100000 x i8], [100000 x i8]* %4, i64 0, i64 %35
  %37 = load i8, i8* %36, align 1
  %38 = sext i8 %37 to i32
  %39 = icmp ne i32 %33, %38
  br i1 %39, label %40, label %47

40:                                               ; preds = %28
  %41 = load i32, i32* %6, align 4
  %42 = load i32, i32* %7, align 4
  %43 = icmp ne i32 %41, %42
  br i1 %43, label %44, label %47

44:                                               ; preds = %40
  %45 = load i32, i32* %7, align 4
  %46 = add nsw i32 %45, 1
  store i32 %46, i32* %7, align 4
  br label %56

47:                                               ; preds = %40, %28
  %48 = load i32, i32* %6, align 4
  %49 = load i32, i32* %7, align 4
  %50 = icmp eq i32 %48, %49
  br i1 %50, label %51, label %54

51:                                               ; preds = %47
  %52 = load i32, i32* %7, align 4
  %53 = add nsw i32 %52, 1
  store i32 %53, i32* %7, align 4
  br label %55

54:                                               ; preds = %47
  br label %57

55:                                               ; preds = %51
  br label %56

56:                                               ; preds = %55, %44
  br label %24

57:                                               ; preds = %54, %24
  %58 = load i32, i32* %7, align 4
  %59 = load i32, i32* %5, align 4
  %60 = icmp eq i32 %58, %59
  br i1 %60, label %61, label %62

61:                                               ; preds = %57
  br label %66

62:                                               ; preds = %57
  %63 = load i32, i32* %6, align 4
  %64 = add nsw i32 %63, 1
  store i32 %64, i32* %6, align 4
  store i32 0, i32* %7, align 4
  br label %65

65:                                               ; preds = %62
  br label %19

66:                                               ; preds = %61, %19
  %67 = load i32, i32* %6, align 4
  %68 = load i32, i32* %5, align 4
  %69 = icmp eq i32 %67, %68
  br i1 %69, label %70, label %72

70:                                               ; preds = %66
  %71 = call i32 (i8*, ...) @printf(i8* getelementptr inbounds ([4 x i8], [4 x i8]* @.str.2, i64 0, i64 0))
  br label %84

72:                                               ; preds = %66
  %73 = load i32, i32* %7, align 4
  %74 = load i32, i32* %5, align 4
  %75 = icmp eq i32 %73, %74
  br i1 %75, label %76, label %83

76:                                               ; preds = %72
  %77 = load i32, i32* %6, align 4
  %78 = sext i32 %77 to i64
  %79 = getelementptr inbounds [100000 x i8], [100000 x i8]* %4, i64 0, i64 %78
  %80 = load i8, i8* %79, align 1
  %81 = sext i8 %80 to i32
  %82 = call i32 (i8*, ...) @printf(i8* getelementptr inbounds ([4 x i8], [4 x i8]* @.str.3, i64 0, i64 0), i32 %81)
  br label %83

83:                                               ; preds = %76, %72
  br label %84

84:                                               ; preds = %83, %70
  %85 = load i32, i32* %3, align 4
  %86 = add nsw i32 %85, 1
  store i32 %86, i32* %3, align 4
  br label %9

87:                                               ; preds = %9
  %88 = load i32, i32* %1, align 4
  ret i32 %88
}

declare dso_local i32 @__isoc99_scanf(i8*, ...) #1

; Function Attrs: argmemonly nounwind willreturn
declare void @llvm.memset.p0i8.i64(i8* nocapture writeonly, i8, i64, i1 immarg) #2

; Function Attrs: nounwind readonly
declare dso_local i64 @strlen(i8*) #3

declare dso_local i32 @printf(i8*, ...) #1


!llvm.module.flags = !{!0}
!llvm.ident = !{!1}

!0 = !{i32 1, !"wchar_size", i32 4}
!1 = !{!"clang version 10.0.0-4ubuntu1 "}
